target datalayout = "e-m:e-p270:32:32-p271:32:32-p272:64:64-i64:64-i128:128-f80:128-n8:16:32:64-S128"
target triple = "x86_64-pc-linux-gnu"

%struct._voip_calls_tapinfo = type { ptr, ptr, ptr, ptr, i32, ptr, [1 x ptr], i32, ptr, i32, i32, i32, ptr, ptr, i32, ptr, i32, i8, i8, ptr, i32, i32, i32, i8, i32, ptr, ptr, ptr, i8, i32, i32, i32, i16, i32, i8, i32, i32, i32, i32, i32, i32, i8 }

; Function Attrs: inlinehint nounwind null_pointer_is_valid sspstrong uwtable
define internal ptr @tap_base_to_id(ptr noundef %0, i32 noundef %1) #4 {
  %3 = alloca ptr, align 8
  %4 = alloca i32, align 4
  store ptr %0, ptr %3, align 8
  store i32 %1, ptr %4, align 4
  %5 = load ptr, ptr %3, align 8
  %6 = ptrtoint ptr %5 to i64
  %7 = load i32, ptr %4, align 4
  %8 = sext i32 %7 to i64
  %9 = add i64 %6, %8
  %10 = inttoptr i64 %9 to ptr
  ret ptr %10
}

; Function Attrs: null_pointer_is_valid sspstrong uwtable
define hidden void @voip_calls_set_apply_display_filter(ptr noundef %0, i1 noundef zeroext %1) #0 {
  %3 = alloca ptr, align 8
  %4 = alloca i8, align 1
  %5 = alloca i32, align 4
  store ptr %0, ptr %3, align 8
  %6 = zext i1 %1 to i8
  store i8 %6, ptr %4, align 1
  %7 = load ptr, ptr %3, align 8
  %8 = getelementptr inbounds nuw %struct._voip_calls_tapinfo, ptr %7, i32 0, i32 41
  %9 = load i8, ptr %8, align 4, !range !9, !noundef !10
  %10 = trunc i8 %9 to i1
  %11 = zext i1 %10 to i32
  %12 = load i8, ptr %4, align 1, !range !9, !noundef !10
  %13 = trunc i8 %12 to i1
  %14 = zext i1 %13 to i32
  %15 = icmp ne i32 %11, %14
  br i1 %15, label %16, label %38

16:                                               ; preds = %2
  call void @llvm.lifetime.start.p0(i64 4, ptr %5) #16
  store i32 0, ptr %5, align 4
  br label %17

17:                                               ; preds = %29, %16
  %18 = load i32, ptr %5, align 4
  %19 = icmp sle i32 %18, 20
  br i1 %19, label %21, label %20

20:                                               ; preds = %17
  call void @llvm.lifetime.end.p0(i64 4, ptr %5) #16
  br label %32

21:                                               ; preds = %17
  %22 = load ptr, ptr %3, align 8
  %23 = load i32, ptr %5, align 4
  %24 = call ptr @tap_base_to_id(ptr noundef %22, i32 noundef %23)
  %25 = load i8, ptr %4, align 1, !range !9, !noundef !10
  %26 = trunc i8 %25 to i1
  %27 = select i1 %26, i32 64, i32 0
  %28 = call ptr @set_tap_flags(ptr noundef %24, i32 noundef %27)
  br label %29

29:                                               ; preds = %21
  %30 = load i32, ptr %5, align 4
  %31 = add i32 %30, 1
  store i32 %31, ptr %5, align 4
  br label %17, !llvm.loop !11

32:                                               ; preds = %20
  %33 = load i8, ptr %4, align 1, !range !9, !noundef !10
  %34 = trunc i8 %33 to i1
  %35 = load ptr, ptr %3, align 8
  %36 = getelementptr inbounds nuw %struct._voip_calls_tapinfo, ptr %35, i32 0, i32 41
  %37 = zext i1 %34 to i8
  store i8 %37, ptr %36, align 4
  br label %38

38:                                               ; preds = %32, %2
  ret void
}