; Function Attrs: null_pointer_is_valid sspstrong uwtable
define hidden void @voip_calls_set_apply_display_filter(ptr noundef %0, i1 noundef zeroext %1) local_unnamed_addr #0 {
  %3 = zext i1 %1 to i8
  %4 = getelementptr inbounds nuw i8, ptr %0, i64 236
  %5 = load i8, ptr %4, align 4, !range !9, !noundef !10
  %.not = icmp eq i8 %5, %3
  br i1 %.not, label %13, label %.preheader

.preheader:                                       ; preds = %2
  %6 = ptrtoint ptr %0 to i64
  %7 = select i1 %1, i32 64, i32 0
  br label %9

8:                                                ; preds = %9
  store i8 %3, ptr %4, align 4
  br label %13

9:                                                ; preds = %.preheader, %9
  %indvars.iv = phi i64 [ 0, %.preheader ], [ %indvars.iv.next, %9 ]
  %10 = add i64 %indvars.iv, %6
  %11 = inttoptr i64 %10 to ptr
  %12 = tail call ptr @set_tap_flags(ptr noundef %11, i32 noundef %7)
  %indvars.iv.next = add nuw nsw i64 %indvars.iv, 1
  %exitcond.not = icmp eq i64 %indvars.iv.next, 21
  br i1 %exitcond.not, label %8, label %9, !llvm.loop !11

13:                                               ; preds = %8, %2
  ret void
}